target datalayout = "e-m:e-p270:32:32-p271:32:32-p272:64:64-i64:64-i128:128-f80:128-n8:16:32:64-S128"
target triple = "x86_64-pc-linux-gnu"

%struct.linenoiseState = type { i32, i32, ptr, i64, ptr, ptr, i64, i64, i64, i64, i64, i64, i32 }

; Function Attrs: nounwind uwtable
define dso_local void @linenoiseEditDelete(ptr noundef %0) #0 {
  %2 = alloca ptr, align 8
  store ptr %0, ptr %2, align 8, !tbaa !23
  %3 = load ptr, ptr %2, align 8, !tbaa !23
  %4 = getelementptr inbounds nuw %struct.linenoiseState, ptr %3, i32 0, i32 9
  %5 = load i64, ptr %4, align 8, !tbaa !25
  %6 = icmp ugt i64 %5, 0
  br i1 %6, label %7, label %51

7:                                                ; preds = %1
  %8 = load ptr, ptr %2, align 8, !tbaa !23
  %9 = getelementptr inbounds nuw %struct.linenoiseState, ptr %8, i32 0, i32 7
  %10 = load i64, ptr %9, align 8, !tbaa !34
  %11 = load ptr, ptr %2, align 8, !tbaa !23
  %12 = getelementptr inbounds nuw %struct.linenoiseState, ptr %11, i32 0, i32 9
  %13 = load i64, ptr %12, align 8, !tbaa !25
  %14 = icmp ult i64 %10, %13
  br i1 %14, label %15, label %51

15:                                               ; preds = %7
  %16 = load ptr, ptr %2, align 8, !tbaa !23
  %17 = getelementptr inbounds nuw %struct.linenoiseState, ptr %16, i32 0, i32 2
  %18 = load ptr, ptr %17, align 8, !tbaa !28
  %19 = load ptr, ptr %2, align 8, !tbaa !23
  %20 = getelementptr inbounds nuw %struct.linenoiseState, ptr %19, i32 0, i32 7
  %21 = load i64, ptr %20, align 8, !tbaa !34
  %22 = getelementptr inbounds nuw i8, ptr %18, i64 %21
  %23 = load ptr, ptr %2, align 8, !tbaa !23
  %24 = getelementptr inbounds nuw %struct.linenoiseState, ptr %23, i32 0, i32 2
  %25 = load ptr, ptr %24, align 8, !tbaa !28
  %26 = load ptr, ptr %2, align 8, !tbaa !23
  %27 = getelementptr inbounds nuw %struct.linenoiseState, ptr %26, i32 0, i32 7
  %28 = load i64, ptr %27, align 8, !tbaa !34
  %29 = getelementptr inbounds nuw i8, ptr %25, i64 %28
  %30 = getelementptr inbounds i8, ptr %29, i64 1
  %31 = load ptr, ptr %2, align 8, !tbaa !23
  %32 = getelementptr inbounds nuw %struct.linenoiseState, ptr %31, i32 0, i32 9
  %33 = load i64, ptr %32, align 8, !tbaa !25
  %34 = load ptr, ptr %2, align 8, !tbaa !23
  %35 = getelementptr inbounds nuw %struct.linenoiseState, ptr %34, i32 0, i32 7
  %36 = load i64, ptr %35, align 8, !tbaa !34
  %37 = sub i64 %33, %36
  %38 = sub i64 %37, 1
  call void @llvm.memmove.p0.p0.i64(ptr align 1 %22, ptr align 1 %30, i64 %38, i1 false)
  %39 = load ptr, ptr %2, align 8, !tbaa !23
  %40 = getelementptr inbounds nuw %struct.linenoiseState, ptr %39, i32 0, i32 9
  %41 = load i64, ptr %40, align 8, !tbaa !25
  %42 = add i64 %41, -1
  store i64 %42, ptr %40, align 8, !tbaa !25
  %43 = load ptr, ptr %2, align 8, !tbaa !23
  %44 = getelementptr inbounds nuw %struct.linenoiseState, ptr %43, i32 0, i32 2
  %45 = load ptr, ptr %44, align 8, !tbaa !28
  %46 = load ptr, ptr %2, align 8, !tbaa !23
  %47 = getelementptr inbounds nuw %struct.linenoiseState, ptr %46, i32 0, i32 9
  %48 = load i64, ptr %47, align 8, !tbaa !25
  %49 = getelementptr inbounds nuw i8, ptr %45, i64 %48
  store i8 0, ptr %49, align 1, !tbaa !29
  %50 = load ptr, ptr %2, align 8, !tbaa !23
  call void @refreshLine(ptr noundef %50)
  br label %51

51:                                               ; preds = %15, %7, %1
  ret void
}