; Function Attrs: nounwind uwtable
define dso_local void @linenoiseEditDelete(ptr noundef captures(none) %0) local_unnamed_addr #10 {
  %2 = getelementptr inbounds nuw i8, ptr %0, i64 64
  %3 = load i64, ptr %2, align 8, !tbaa !17
  %.not = icmp eq i64 %3, 0
  br i1 %.not, label %19, label %4

4:                                                ; preds = %1
  %5 = getelementptr inbounds nuw i8, ptr %0, i64 48
  %6 = load i64, ptr %5, align 8, !tbaa !26
  %7 = icmp ult i64 %6, %3
  br i1 %7, label %8, label %19

8:                                                ; preds = %4
  %9 = getelementptr inbounds nuw i8, ptr %0, i64 8
  %10 = load ptr, ptr %9, align 8, !tbaa !20
  %11 = getelementptr inbounds nuw i8, ptr %10, i64 %6
  %12 = getelementptr inbounds nuw i8, ptr %11, i64 1
  %13 = xor i64 %6, -1
  %14 = add i64 %3, %13
  tail call void @llvm.memmove.p0.p0.i64(ptr align 1 %11, ptr nonnull align 1 %12, i64 %14, i1 false)
  %15 = load i64, ptr %2, align 8, !tbaa !17
  %16 = add i64 %15, -1
  store i64 %16, ptr %2, align 8, !tbaa !17
  %17 = load ptr, ptr %9, align 8, !tbaa !20
  %18 = getelementptr inbounds nuw i8, ptr %17, i64 %16
  store i8 0, ptr %18, align 1, !tbaa !21
  tail call fastcc void @refreshLine(ptr noundef nonnull %0)
  br label %19

19:                                               ; preds = %8, %4, %1
  ret void
}